c__main__
SampleMapGame
p0
((dp1
S'_level'
p2
c__main__
SampleMap
p3
(N(dp4
S'grid'
p5
(lp6
(lp7
(S'wall_corner_nw'
p8
S'g'
p9
tp10
a(S'vwall'
p11
S'd'
p12
tp13
a(g11
g12
tp14
a(g11
g12
tp15
a(S'wall_corner_sw'
p16
S'j'
p17
tp18
aa(lp19
(S'hwall'
p20
S'o'
p21
tp22
a(S'floor3'
p23
S'#'
p24
tp25
a(g23
g24
tp26
a(g23
g24
tp27
a(g20
g21
tp28
aa(lp29
(g20
g21
tp30
a(S'floor2'
p31
S','
p32
tp33
a(g23
g24
tp34
a(g31
g32
tp35
a(g20
g21
tp36
aa(lp37
(g20
g21
tp38
a(S'floor1'
p39
S'.'
p40
tp41
a(g39
g40
tp42
a(g39
g40
tp43
a(g20
g21
tp44
aa(lp45
(g20
g21
tp46
a(g39
g40
tp47
a(g39
g40
tp48
a(g39
g40
tp49
a(g20
g21
tp50
aa(lp51
(g20
g21
tp52
a(g39
g40
tp53
a(g39
g40
tp54
a(g39
g40
tp55
a(g20
g21
tp56
aa(lp57
(g20
g21
tp58
a(g39
g40
tp59
a(g39
g40
tp60
a(g39
g40
tp61
a(g20
g21
tp62
aa(lp63
(g20
g21
tp64
a(g39
g40
tp65
a(g39
g40
tp66
a(g39
g40
tp67
a(g20
g21
tp68
aa(lp69
(g20
g21
tp70
a(g39
g40
tp71
a(g39
g40
tp72
a(g39
g40
tp73
a(g20
g21
tp74
aa(lp75
(g20
g21
tp76
a(g31
g32
tp77
a(g31
g32
tp78
a(g31
g32
tp79
a(g20
g21
tp80
aa(lp81
(g20
g21
tp82
a(g31
g32
tp83
a(g31
g32
tp84
a(g31
g32
tp85
a(g20
g21
tp86
aa(lp87
(g20
g21
tp88
a(g31
g32
tp89
a(g31
g32
tp90
a(g31
g32
tp91
a(g20
g21
tp92
aa(lp93
(g20
g21
tp94
a(g39
g40
tp95
a(g23
g24
tp96
a(g39
g40
tp97
a(g20
g21
tp98
aa(lp99
(S'wall_corner_ne'
p100
S'G'
p101
tp102
a(g16
g17
tp103
a(S'vfeature'
p104
S':'
p105
tp106
a(g8
g9
tp107
a(S'wall_corner_se'
p108
S'J'
p109
tp110
aa(lp111
(S'space'
p112
S' '
p113
tp114
a(g20
g21
tp115
a(g39
g40
tp116
a(g20
g21
tp117
ag114
aa(lp118
g114
a(g20
g21
tp119
a(g39
g40
tp120
a(g20
g21
tp121
ag114
aa(lp122
g114
a(g20
g21
tp123
a(g39
g40
tp124
a(g20
g21
tp125
ag114
aa(lp126
g114
a(g20
g21
tp127
a(g104
S'*'
p128
tp129
a(g20
g21
tp130
ag114
aa(lp131
g114
a(g20
g21
tp132
a(g39
g40
tp133
a(g20
g21
tp134
ag114
aa(lp135
g114
a(g20
g21
tp136
a(g39
g40
tp137
a(g20
g21
tp138
ag114
aa(lp139
g114
a(g20
g21
tp140
a(g39
g40
tp141
a(g20
g21
tp142
ag114
aasS'WIDTH'
p143
I21
sS'objgrid'
p144
(lp145
(lp146
(lp147
a(lp148
a(lp149
a(lp150
a(lp151
aa(lp152
(lp153
a(lp154
a(lp155
a(lp156
a(lp157
aa(lp158
(lp159
a(lp160
a(lp161
a(lp162
a(lp163
aa(lp164
(lp165
a(lp166
cludicrous.PlayerObject
PlayerObject
p167
(NNNN(dp168
S'status'
p169
S'placed'
p170
sS'pt'
p171
(I3
I1
tp172
sS'extra'
p173
NsS'all_objects'
p174
NsS'known'
p175
(lp176
sS'contents'
p177
(lp178
stp179
Rp180
aa(lp181
a(lp182
a(lp183
aa(lp184
(lp185
a(lp186
a(lp187
a(lp188
a(lp189
aa(lp190
(lp191
a(lp192
a(lp193
a(lp194
a(lp195
aa(lp196
(lp197
a(lp198
a(lp199
a(lp200
a(lp201
aa(lp202
(lp203
a(lp204
a(lp205
a(lp206
a(lp207
aa(lp208
(lp209
a(lp210
a(lp211
a(lp212
a(lp213
aa(lp214
(lp215
a(lp216
a(lp217
a(lp218
a(lp219
aa(lp220
(lp221
a(lp222
a(lp223
a(lp224
a(lp225
aa(lp226
(lp227
a(lp228
a(lp229
a(lp230
a(lp231
aa(lp232
(lp233
a(lp234
a(lp235
a(lp236
a(lp237
aa(lp238
(lp239
a(lp240
a(lp241
a(lp242
a(lp243
aa(lp244
(lp245
a(lp246
a(lp247
a(lp248
a(lp249
aa(lp250
(lp251
a(lp252
a(lp253
a(lp254
a(lp255
aa(lp256
(lp257
a(lp258
a(lp259
a(lp260
a(lp261
aa(lp262
(lp263
a(lp264
a(lp265
a(lp266
a(lp267
aa(lp268
(lp269
a(lp270
a(lp271
a(lp272
a(lp273
aa(lp274
(lp275
a(lp276
a(lp277
a(lp278
a(lp279
aa(lp280
(lp281
a(lp282
a(lp283
a(lp284
a(lp285
aasS'child_objects'
p286
(lp287
g180
asS'HEIGHT'
p288
I5
stp289
Rp290
sS'loading_lock'
p291
I0
stp292
Rp293
.